ccopy_reg
_reconstructor
p0
(cpyretic.core.network
Topology
p1
c__builtin__
object
p2
Ntp3
Rp4
(dp5
S'node'
p6
(dp7
I1
(dp8
S'name'
p9
I1
sS'ports'
p10
(dp11
I1
g0
(cpyretic.core.network
Port
p12
g2
Ntp13
Rp14
(dp15
S'status'
p16
I01
sS'linked_to'
p17
NsS'config'
p18
I01
sS'port_no'
p19
I1
sbsI2
g0
(g12
g2
Ntp20
Rp21
(dp22
g16
I01
sg17
Nsg18
I01
sg19
I2
sbsI3
g0
(g12
g2
Ntp23
Rp24
(dp25
g16
I01
sg17
g0
(cpyretic.core.network
Location
p26
g2
Ntp27
Rp28
(dp29
S'switch'
p30
I2
sg19
I3
sbsg18
I01
sg19
I3
sbsssI2
(dp31
g9
I2
sg10
(dp32
I1
g0
(g12
g2
Ntp33
Rp34
(dp35
g16
I01
sg17
Nsg18
I01
sg19
I1
sbsI2
g0
(g12
g2
Ntp36
Rp37
(dp38
g16
I01
sg17
Nsg18
I01
sg19
I2
sbsI3
g0
(g12
g2
Ntp39
Rp40
(dp41
g16
I01
sg17
g0
(g26
g2
Ntp42
Rp43
(dp44
g30
I1
sg19
I3
sbsg18
I01
sg19
I3
sbssssS'graph'
p45
(dp46
sS'edge'
p47
(dp48
I1
(dp49
I2
(dp50
I1
I3
sI2
I3
sssI2
(dp51
I1
g50
sssS'adj'
p52
g48
sb.